; Function Attrs: nounwind uwtable
define internal fastcc i32 @t1_allocate_blend(ptr noundef %0, i32 noundef %1, i32 noundef %2) unnamed_addr #2 {
  %4 = alloca i32, align 4
  %5 = getelementptr inbounds i8, ptr %0, i64 184
  %6 = load ptr, ptr %5, align 8
  store i32 0, ptr %4, align 4
  %7 = getelementptr inbounds i8, ptr %0, i64 848
  %8 = load ptr, ptr %7, align 8
  %.not = icmp eq ptr %8, null
  br i1 %.not, label %9, label %16

9:                                                ; preds = %3
  %10 = call ptr @ft_mem_alloc(ptr noundef %6, i64 noundef 768, ptr noundef nonnull %4) #16
  %11 = load i32, ptr %4, align 4
  %.not57 = icmp eq i32 %11, 0
  br i1 %.not57, label %12, label %56

12:                                               ; preds = %9
  %13 = getelementptr inbounds i8, ptr %10, i64 760
  store i32 0, ptr %13, align 8
  %14 = getelementptr inbounds i8, ptr %10, i64 264
  %15 = getelementptr inbounds i8, ptr %10, i64 40
  store ptr null, ptr %15, align 8
  call void @llvm.memset.p0.i64(ptr noundef nonnull align 8 dereferenceable(16) %14, i8 0, i64 16, i1 false)
  store ptr %10, ptr %7, align 8
  br label %16

16:                                               ; preds = %12, %3
  %.051 = phi ptr [ %8, %3 ], [ %10, %12 ]
  %.not58 = icmp eq i32 %1, 0
  br i1 %.not58, label %51, label %17

17:                                               ; preds = %16
  %18 = load i32, ptr %.051, align 8
  %19 = icmp eq i32 %18, 0
  br i1 %19, label %20, label %50

20:                                               ; preds = %17
  %21 = zext i32 %1 to i64
  %22 = call ptr @ft_mem_realloc(ptr noundef %6, i64 noundef 56, i64 noundef 0, i64 noundef %21, ptr noundef null, ptr noundef nonnull %4) #16
  %23 = getelementptr inbounds i8, ptr %.051, i64 280
  %24 = getelementptr inbounds i8, ptr %.051, i64 288
  store ptr %22, ptr %24, align 8
  %25 = load i32, ptr %4, align 4
  %.not60 = icmp eq i32 %25, 0
  br i1 %.not60, label %26, label %56

26:                                               ; preds = %20
  %27 = call ptr @ft_mem_realloc(ptr noundef %6, i64 noundef 224, i64 noundef 0, i64 noundef %21, ptr noundef null, ptr noundef nonnull %4) #16
  %28 = getelementptr inbounds i8, ptr %.051, i64 416
  %29 = getelementptr inbounds i8, ptr %.051, i64 424
  store ptr %27, ptr %29, align 8
  %30 = load i32, ptr %4, align 4
  %.not61 = icmp eq i32 %30, 0
  br i1 %.not61, label %31, label %56

31:                                               ; preds = %26
  %32 = call ptr @ft_mem_realloc(ptr noundef %6, i64 noundef 32, i64 noundef 0, i64 noundef %21, ptr noundef null, ptr noundef nonnull %4) #16
  %33 = getelementptr inbounds i8, ptr %.051, i64 560
  %34 = getelementptr inbounds i8, ptr %.051, i64 568
  store ptr %32, ptr %34, align 8
  %35 = load i32, ptr %4, align 4
  %.not62 = icmp eq i32 %35, 0
  br i1 %.not62, label %36, label %56

36:                                               ; preds = %31
  %37 = getelementptr inbounds i8, ptr %0, i64 248
  store ptr %37, ptr %23, align 8
  %38 = getelementptr inbounds i8, ptr %0, i64 312
  store ptr %38, ptr %28, align 8
  %39 = getelementptr inbounds i8, ptr %0, i64 728
  store ptr %39, ptr %33, align 8
  %.not6367 = icmp eq i32 %1, 1
  br i1 %.not6367, label %._crit_edge, label %.lr.ph.preheader

.lr.ph.preheader:                                 ; preds = %36
  %40 = add i32 %1, 1
  %umax = call i32 @llvm.umax.i32(i32 %40, i32 3)
  %wide.trip.count = zext i32 %umax to i64
  %.phi.trans.insert = getelementptr inbounds i8, ptr %.051, i64 288
  %.pre = load ptr, ptr %.phi.trans.insert, align 8
  %.phi.trans.insert70 = getelementptr inbounds i8, ptr %.051, i64 424
  %.pre71 = load ptr, ptr %.phi.trans.insert70, align 8
  br label %.lr.ph

.lr.ph:                                           ; preds = %.lr.ph.preheader, %.lr.ph
  %41 = phi ptr [ %32, %.lr.ph.preheader ], [ %48, %.lr.ph ]
  %42 = phi ptr [ %.pre71, %.lr.ph.preheader ], [ %46, %.lr.ph ]
  %43 = phi ptr [ %.pre, %.lr.ph.preheader ], [ %44, %.lr.ph ]
  %indvars.iv = phi i64 [ 2, %.lr.ph.preheader ], [ %indvars.iv.next, %.lr.ph ]
  %44 = getelementptr inbounds i8, ptr %43, i64 56
  %45 = getelementptr inbounds [17 x ptr], ptr %23, i64 0, i64 %indvars.iv
  store ptr %44, ptr %45, align 8
  %46 = getelementptr inbounds i8, ptr %42, i64 224
  %47 = getelementptr inbounds [17 x ptr], ptr %28, i64 0, i64 %indvars.iv
  store ptr %46, ptr %47, align 8
  %48 = getelementptr inbounds i8, ptr %41, i64 32
  %49 = getelementptr inbounds [17 x ptr], ptr %33, i64 0, i64 %indvars.iv
  store ptr %48, ptr %49, align 8
  %indvars.iv.next = add nuw nsw i64 %indvars.iv, 1
  %exitcond = icmp eq i64 %indvars.iv.next, %wide.trip.count
  br i1 %exitcond, label %._crit_edge, label %.lr.ph, !llvm.loop !51

._crit_edge:                                      ; preds = %.lr.ph, %36
  store i32 %1, ptr %.051, align 8
  br label %51

50:                                               ; preds = %17
  %.not59 = icmp eq i32 %18, %1
  br i1 %.not59, label %51, label %58

51:                                               ; preds = %._crit_edge, %50, %16
  %.not64 = icmp eq i32 %2, 0
  br i1 %.not64, label %56, label %52

52:                                               ; preds = %51
  %53 = getelementptr inbounds i8, ptr %.051, i64 4
  %54 = load i32, ptr %53, align 4
  %.not65 = icmp eq i32 %54, 0
  %.not66 = icmp eq i32 %54, %2
  %or.cond = or i1 %.not65, %.not66
  br i1 %or.cond, label %55, label %58

55:                                               ; preds = %52
  store i32 %2, ptr %53, align 4
  br label %56

56:                                               ; preds = %51, %55, %20, %26, %31, %9, %58
  %57 = load i32, ptr %4, align 4
  ret i32 %57

58:                                               ; preds = %52, %50
  store i32 3, ptr %4, align 4
  br label %56
}